; Function Attrs: mustprogress uwtable
define void @_ZN3fmt3v114file6fdopenEPKc(ptr dead_on_unwind noalias writable writeonly sret(%"class.fmt::v11::buffered_file") align 8 captures(none) %0, ptr noundef nonnull align 4 captures(none) dereferenceable(4) %1, ptr noundef readonly captures(none) %2) local_unnamed_addr #6 align 2 personality ptr @__gxx_personality_v0 {
  %4 = alloca %"struct.fmt::v11::detail::format_arg_store.41", align 16
  %5 = load i32, ptr %1, align 4, !tbaa !22
  %6 = tail call noalias ptr @fdopen(i32 noundef %5, ptr noundef %2) #17
  %.not = icmp eq ptr %6, null
  br i1 %.not, label %7, label %14

7:                                                ; preds = %3
  %8 = tail call ptr @__cxa_allocate_exception(i64 32) #17
  %9 = tail call ptr @__errno_location() #16
  %10 = load i32, ptr %9, align 4, !tbaa !9
  call void @llvm.lifetime.start.p0(i64 16, ptr nonnull %4) #17, !noalias !60
  invoke void @_ZN3fmt3v1113vsystem_errorEiNS0_17basic_string_viewIcEENS0_17basic_format_argsINS0_7contextEEE(ptr dead_on_unwind writable sret(%"class.std::system_error") align 8 %8, i32 noundef %10, ptr nonnull @.str.9, i64 44, i64 0, ptr nonnull %4)
          to label %11 unwind label %12

11:                                               ; preds = %7
  call void @llvm.lifetime.end.p0(i64 16, ptr nonnull %4) #17, !noalias !60
  call void @__cxa_throw(ptr %8, ptr nonnull @_ZTISt12system_error, ptr nonnull @_ZNSt12system_errorD1Ev) #19
  unreachable

12:                                               ; preds = %7
  %13 = landingpad { ptr, i32 }
          cleanup
  call void @__cxa_free_exception(ptr %8) #17
  resume { ptr, i32 } %13

14:                                               ; preds = %3
  store ptr %6, ptr %0, align 8, !tbaa !3
  store i32 -1, ptr %1, align 4, !tbaa !22
  ret void
}